; Function Attrs: mustprogress uwtable
define internal noundef zeroext i1 @"_ZNSt17_Function_handlerIFvllEZN18OpenImageIO_v2_6_03pvt27parallel_convert_from_floatEPKfPvmNS1_8TypeDescEE3$_0E10_M_managerERSt9_Any_dataRKS9_St18_Manager_operation"(ptr nocapture noundef nonnull align 8 dereferenceable(16) %__dest, ptr nocapture noundef nonnull readonly align 8 dereferenceable(16) %__source, i32 noundef %__op) #5 align 2 {
entry:
  switch i32 %__op, label %sw.epilog [
    i32 0, label %sw.bb
    i32 1, label %sw.bb1
    i32 3, label %sw.bb6.i
    i32 2, label %sw.bb4.i
  ]

sw.bb:                                            ; preds = %entry
  store ptr @"_ZTIZN18OpenImageIO_v2_6_03pvt27parallel_convert_from_floatEPKfPvmNS_8TypeDescEE3$_0", ptr %__dest, align 8
  br label %sw.epilog

sw.bb1:                                           ; preds = %entry
  %__source.val = load ptr, ptr %__source, align 8
  store ptr %__source.val, ptr %__dest, align 8
  br label %sw.epilog

sw.bb4.i:                                         ; preds = %entry
  %__source.val5 = load ptr, ptr %__source, align 8
  %call.i.i.i = tail call noalias noundef nonnull dereferenceable(24) ptr @_Znwm(i64 noundef 24) #38
  tail call void @llvm.memcpy.p0.p0.i64(ptr noundef nonnull align 8 dereferenceable(16) %call.i.i.i, ptr noundef nonnull align 8 dereferenceable(16) %__source.val5, i64 16, i1 false)
  %0 = getelementptr inbounds i8, ptr %call.i.i.i, i64 16
  %1 = getelementptr inbounds i8, ptr %__source.val5, i64 16
  %2 = load i8, ptr %1, align 4
  store i8 %2, ptr %0, align 4
  %aggregate.i.i.i.i.i = getelementptr inbounds i8, ptr %call.i.i.i, i64 17
  %aggregate3.i.i.i.i.i = getelementptr inbounds i8, ptr %__source.val5, i64 17
  %3 = load i8, ptr %aggregate3.i.i.i.i.i, align 1
  store i8 %3, ptr %aggregate.i.i.i.i.i, align 1
  %vecsemantics.i.i.i.i.i = getelementptr inbounds i8, ptr %call.i.i.i, i64 18
  %vecsemantics4.i.i.i.i.i = getelementptr inbounds i8, ptr %__source.val5, i64 18
  %4 = load i8, ptr %vecsemantics4.i.i.i.i.i, align 2
  store i8 %4, ptr %vecsemantics.i.i.i.i.i, align 2
  %reserved.i.i.i.i.i = getelementptr inbounds i8, ptr %call.i.i.i, i64 19
  store i8 0, ptr %reserved.i.i.i.i.i, align 1
  %arraylen.i.i.i.i.i = getelementptr inbounds i8, ptr %call.i.i.i, i64 20
  %arraylen5.i.i.i.i.i = getelementptr inbounds i8, ptr %__source.val5, i64 20
  %5 = load i32, ptr %arraylen5.i.i.i.i.i, align 4
  store i32 %5, ptr %arraylen.i.i.i.i.i, align 4
  store ptr %call.i.i.i, ptr %__dest, align 8
  br label %sw.epilog

sw.bb6.i:                                         ; preds = %entry
  %__dest.val.i = load ptr, ptr %__dest, align 8
  %isnull.i.i = icmp eq ptr %__dest.val.i, null
  br i1 %isnull.i.i, label %sw.epilog, label %delete.notnull.i.i

delete.notnull.i.i:                               ; preds = %sw.bb6.i
  tail call void @_ZdlPv(ptr noundef nonnull %__dest.val.i) #33
  br label %sw.epilog

sw.epilog:                                        ; preds = %entry, %delete.notnull.i.i, %sw.bb6.i, %sw.bb4.i, %sw.bb1, %sw.bb
  ret i1 false
}